; Function Attrs: inlinehint mustprogress nofree nounwind willreturn uwtable
define internal fastcc range(i32 -32, 1) i32 @pmix_bfrops_base_tma_copy_devdist(ptr noundef writeonly captures(none) %0, ptr noundef readonly captures(none) %1) unnamed_addr #15 {
  %calloc = tail call dereferenceable_or_null(32) ptr @calloc(i64 1, i64 32)
  %.not.i = icmp eq ptr %calloc, null
  br i1 %.not.i, label %pmix_bfrops_base_tma_device_distance_create.exit.thread, label %.preheader.i.preheader, !prof !116

.preheader.i.preheader:                           ; preds = %2
  %3 = getelementptr inbounds nuw i8, ptr %calloc, i64 24
  %4 = getelementptr inbounds nuw i8, ptr %calloc, i64 26
  %5 = load ptr, ptr %1, align 8, !tbaa !88
  %.not = icmp eq ptr %5, null
  br i1 %.not, label %8, label %6

6:                                                ; preds = %.preheader.i.preheader
  %7 = tail call noalias ptr @strdup(ptr noundef nonnull readonly %5) #24
  store ptr %7, ptr %calloc, align 8, !tbaa !88
  br label %8

8:                                                ; preds = %6, %.preheader.i.preheader
  %9 = getelementptr inbounds nuw i8, ptr %1, i64 8
  %10 = load ptr, ptr %9, align 8, !tbaa !90
  %.not21 = icmp eq ptr %10, null
  br i1 %.not21, label %14, label %11

11:                                               ; preds = %8
  %12 = tail call noalias ptr @strdup(ptr noundef nonnull readonly %10) #24
  %13 = getelementptr inbounds nuw i8, ptr %calloc, i64 8
  store ptr %12, ptr %13, align 8, !tbaa !90
  br label %14

14:                                               ; preds = %11, %8
  %15 = getelementptr inbounds nuw i8, ptr %1, i64 16
  %16 = load i64, ptr %15, align 8, !tbaa !243
  %17 = getelementptr inbounds nuw i8, ptr %calloc, i64 16
  store i64 %16, ptr %17, align 8, !tbaa !243
  %18 = getelementptr inbounds nuw i8, ptr %1, i64 24
  %19 = load i16, ptr %18, align 8, !tbaa !244
  store i16 %19, ptr %3, align 8, !tbaa !244
  %20 = getelementptr inbounds nuw i8, ptr %1, i64 26
  %21 = load i16, ptr %20, align 2, !tbaa !245
  store i16 %21, ptr %4, align 2, !tbaa !245
  store ptr %calloc, ptr %0, align 8, !tbaa !289
  br label %pmix_bfrops_base_tma_device_distance_create.exit.thread

pmix_bfrops_base_tma_device_distance_create.exit.thread: ; preds = %2, %14
  %.0 = phi i32 [ 0, %14 ], [ -32, %2 ]
  ret i32 %.0
}